; Function Attrs: nounwind uwtable
define dso_local range(i32 -1, 1) i32 @csprng_bytes(ptr noundef captures(none) %0, i64 noundef %1, i32 %2) local_unnamed_addr #0 {
  %4 = alloca %struct.pollfd, align 4
  %5 = tail call i32 (ptr, i32, ...) @open64(ptr noundef nonnull @.str.27, i32 noundef 0) #20
  %6 = icmp slt i32 %5, 0
  br i1 %6, label %25, label %.preheader

.preheader:                                       ; preds = %3
  %.not17 = icmp eq i64 %1, 0
  br i1 %.not17, label %._crit_edge, label %.lr.ph

.lr.ph:                                           ; preds = %.preheader
  %7 = getelementptr inbounds nuw i8, ptr %4, i64 4
  br label %8

8:                                                ; preds = %.lr.ph, %.loopexit
  %.01419 = phi i64 [ %1, %.lr.ph ], [ %22, %.loopexit ]
  %.01518 = phi ptr [ %0, %.lr.ph ], [ %23, %.loopexit ]
  %spec.store.select.i = call i64 @llvm.umin.i64(i64 %.01419, i64 8388608)
  %9 = call i64 @read(i32 noundef %5, ptr noundef %.01518, i64 noundef %spec.store.select.i) #20
  %10 = icmp slt i64 %9, 0
  br i1 %10, label %.lr.ph.i, label %.loopexit

.lr.ph.i:                                         ; preds = %8
  %11 = tail call ptr @__errno_location() #26
  br label %12

12:                                               ; preds = %.backedge.i, %.lr.ph.i
  %13 = load i32, ptr %11, align 4, !tbaa !9
  %14 = icmp eq i32 %13, 4
  br i1 %14, label %.backedge.i, label %17

.backedge.i:                                      ; preds = %handle_nonblock.exit.i, %12
  %15 = call i64 @read(i32 noundef %5, ptr noundef %.01518, i64 noundef %spec.store.select.i) #20
  %16 = icmp slt i64 %15, 0
  br i1 %16, label %12, label %.loopexit

17:                                               ; preds = %12
  call void @llvm.lifetime.start.p0(i64 8, ptr nonnull %4) #20
  %.not.i.i = icmp eq i32 %13, 11
  br i1 %.not.i.i, label %handle_nonblock.exit.i, label %19

handle_nonblock.exit.i:                           ; preds = %17
  store i32 %5, ptr %4, align 4, !tbaa !11
  store i16 1, ptr %7, align 4, !tbaa !14
  %18 = call i32 @poll(ptr noundef nonnull %4, i64 noundef 1, i32 noundef -1) #20
  call void @llvm.lifetime.end.p0(i64 8, ptr nonnull %4) #20
  br label %.backedge.i

19:                                               ; preds = %17
  call void @llvm.lifetime.end.p0(i64 8, ptr nonnull %4) #20
  %20 = load i32, ptr %11, align 4, !tbaa !9
  %21 = call i32 @close(i32 noundef %5) #20
  store i32 %20, ptr %11, align 4, !tbaa !9
  br label %25

.loopexit:                                        ; preds = %.backedge.i, %8
  %.ph = phi i64 [ %9, %8 ], [ %15, %.backedge.i ]
  %22 = sub i64 %.01419, %.ph
  %23 = getelementptr inbounds nuw i8, ptr %.01518, i64 %.ph
  %.not = icmp eq i64 %22, 0
  br i1 %.not, label %._crit_edge, label %8, !llvm.loop !21

._crit_edge:                                      ; preds = %.loopexit, %.preheader
  %24 = call i32 @close(i32 noundef %5) #20
  br label %25

25:                                               ; preds = %3, %._crit_edge, %19
  %.0 = phi i32 [ -1, %19 ], [ 0, %._crit_edge ], [ -1, %3 ]
  ret i32 %.0
}